; Function Attrs: nounwind uwtable
define noalias ptr @l_Lean_Loop_forIn_loop___at_Lean_Elab_PartialFixpoint_isOptionFixpoint___spec__2(ptr noundef %0) local_unnamed_addr #0 {
  %2 = tail call zeroext i8 @l_Lean_Expr_isLambda(ptr noundef %0) #6
  %3 = icmp eq i8 %2, 0
  br i1 %3, label %._crit_edge, label %.lr.ph

._crit_edge:                                      ; preds = %lean_dec.exit, %1
  %.010.lcssa = phi ptr [ %0, %1 ], [ %7, %lean_dec.exit ]
  tail call void @lean_inc_heartbeat() #6
  %4 = tail call noalias ptr @mi_malloc_small(i64 noundef 16) #6
  %5 = icmp eq ptr %4, null
  br i1 %5, label %6, label %19

6:                                                ; preds = %._crit_edge
  tail call void @lean_internal_panic_out_of_memory() #7
  unreachable

.lr.ph:                                           ; preds = %1, %lean_dec.exit
  %.01018 = phi ptr [ %7, %lean_dec.exit ], [ %0, %1 ]
  %7 = tail call ptr @l_Lean_Expr_bindingBody_x21(ptr noundef %.01018) #6
  %8 = ptrtoint ptr %.01018 to i64
  %9 = and i64 %8, 1
  %.not = icmp eq i64 %9, 0
  br i1 %.not, label %10, label %lean_dec.exit

10:                                               ; preds = %.lr.ph
  %11 = load i32, ptr %.01018, align 4, !tbaa !4
  %12 = icmp sgt i32 %11, 1
  br i1 %12, label %13, label %15, !prof !14

13:                                               ; preds = %10
  %14 = add nsw i32 %11, -1
  store i32 %14, ptr %.01018, align 4, !tbaa !4
  br label %lean_dec.exit

15:                                               ; preds = %10
  %.not.i = icmp eq i32 %11, 0
  br i1 %.not.i, label %lean_dec.exit, label %16

16:                                               ; preds = %15
  tail call void @lean_dec_ref_cold(ptr noundef nonnull %.01018) #6
  br label %lean_dec.exit

lean_dec.exit:                                    ; preds = %.lr.ph, %13, %15, %16
  %17 = tail call zeroext i8 @l_Lean_Expr_isLambda(ptr noundef %7) #6
  %18 = icmp eq i8 %17, 0
  br i1 %18, label %._crit_edge, label %.lr.ph

19:                                               ; preds = %._crit_edge
  %20 = getelementptr inbounds nuw i8, ptr %4, i64 4
  store i32 1, ptr %4, align 4, !tbaa !4
  store i32 16842768, ptr %20, align 4
  %21 = getelementptr inbounds nuw i8, ptr %4, i64 8
  store ptr %.010.lcssa, ptr %21, align 8, !tbaa !9
  ret ptr %4
}